	.file	"bubbleSort.c"
	.text
	.globl	swap
	.type	swap, @function
swap:
.LFB0:
	.cfi_startproc
	pushq	%rbp
	.cfi_def_cfa_offset 16
	.cfi_offset 6, -16
	movq	%rsp, %rbp
	.cfi_def_cfa_register 6
	movq	%rdi, -24(%rbp)
	movq	%rsi, -32(%rbp)
	movq	-24(%rbp), %rax
	movl	(%rax), %eax
	movl	%eax, -4(%rbp)
	movq	-32(%rbp), %rax
	movl	(%rax), %edx
	movq	-24(%rbp), %rax
	movl	%edx, (%rax)
	movq	-32(%rbp), %rax
	movl	-4(%rbp), %edx
	movl	%edx, (%rax)
	nop
	popq	%rbp
	.cfi_def_cfa 7, 8
	ret
	.cfi_endproc
.LFE0:
	.size	swap, .-swap
	.globl	bubbleSort
	.type	bubbleSort, @function
bubbleSort:
.LFB1:
	.cfi_startproc
	pushq	%rbp
	.cfi_def_cfa_offset 16
	.cfi_offset 6, -16
	movq	%rsp, %rbp
	.cfi_def_cfa_register 6
	subq	$32, %rsp
	movq	%rdi, -24(%rbp)
	movl	%esi, -28(%rbp)
	movl	$0, -8(%rbp)
	jmp	.L3
.L7:
	movl	$0, -4(%rbp)
	jmp	.L4
.L6:
	movl	-4(%rbp), %eax
	cltq
	leaq	0(,%rax,4), %rdx
	movq	-24(%rbp), %rax
	addq	%rdx, %rax
	movl	(%rax), %edx
	movl	-4(%rbp), %eax
	cltq
	addq	$1, %rax
	leaq	0(,%rax,4), %rcx
	movq	-24(%rbp), %rax
	addq	%rcx, %rax
	movl	(%rax), %eax
	cmpl	%eax, %edx
	jle	.L5
	movl	-4(%rbp), %eax
	cltq
	addq	$1, %rax
	leaq	0(,%rax,4), %rdx
	movq	-24(%rbp), %rax
	addq	%rax, %rdx
	movl	-4(%rbp), %eax
	cltq
	leaq	0(,%rax,4), %rcx
	movq	-24(%rbp), %rax
	addq	%rcx, %rax
	movq	%rdx, %rsi
	movq	%rax, %rdi
	call	swap
.L5:
	addl	$1, -4(%rbp)
.L4:
	movl	-28(%rbp), %eax
	subl	-8(%rbp), %eax
	subl	$1, %eax
	cmpl	-4(%rbp), %eax
	jg	.L6
	addl	$1, -8(%rbp)
.L3:
	movl	-28(%rbp), %eax
	subl	$1, %eax
	cmpl	-8(%rbp), %eax
	jg	.L7
	nop
	leave
	.cfi_def_cfa 7, 8
	ret
	.cfi_endproc
.LFE1:
	.size	bubbleSort, .-bubbleSort
	.globl	fill_array
	.type	fill_array, @function
fill_array:
.LFB2:
	.cfi_startproc
	pushq	%rbp
	.cfi_def_cfa_offset 16
	.cfi_offset 6, -16
	movq	%rsp, %rbp
	.cfi_def_cfa_register 6
	pushq	%rbx
	subq	$40, %rsp
	.cfi_offset 3, -24
	movq	%rdi, -40(%rbp)
	movl	%esi, -44(%rbp)
	cmpl	$0, -44(%rbp)
	je	.L9
	movl	$0, -20(%rbp)
	jmp	.L10
.L11:
	movl	-20(%rbp), %eax
	cltq
	leaq	0(,%rax,4), %rdx
	movq	-40(%rbp), %rax
	addq	%rax, %rdx
	movl	-20(%rbp), %eax
	movl	%eax, (%rdx)
	addl	$1, -20(%rbp)
.L10:
	cmpl	$99, -20(%rbp)
	jle	.L11
	jmp	.L12
.L9:
	movl	$0, -20(%rbp)
	jmp	.L13
.L14:
	movl	-20(%rbp), %eax
	cltq
	leaq	0(,%rax,4), %rdx
	movq	-40(%rbp), %rax
	leaq	(%rdx,%rax), %rbx
	movl	$0, %eax
	call	rand
	movl	%eax, (%rbx)
	addl	$1, -20(%rbp)
.L13:
	cmpl	$99, -20(%rbp)
	jle	.L14
.L12:
	nop
	addq	$40, %rsp
	popq	%rbx
	popq	%rbp
	.cfi_def_cfa 7, 8
	ret
	.cfi_endproc
.LFE2:
	.size	fill_array, .-fill_array
	.globl	main
	.type	main, @function
main:
.LFB3:
	.cfi_startproc
	pushq	%rbp
	.cfi_def_cfa_offset 16
	.cfi_offset 6, -16
	movq	%rsp, %rbp
	.cfi_def_cfa_register 6
	subq	$16, %rsp
	movl	$400, %edi
	call	malloc
	movl	%eax, -8(%rbp)
	movl	-8(%rbp), %eax
	cltq
	movl	$0, %esi
	movq	%rax, %rdi
	call	fill_array
	movl	$25, -4(%rbp)
	movl	-8(%rbp), %eax
	cltq
	movl	$100, %esi
	movq	%rax, %rdi
	call	bubbleSort
	movl	$0, %eax
	leave
	.cfi_def_cfa 7, 8
	ret
	.cfi_endproc
.LFE3:
	.size	main, .-main
	.ident	"GCC: (Ubuntu 5.4.0-6ubuntu1~16.04.10) 5.4.0 20160609"
	.section	.note.GNU-stack,"",@progbits
